target datalayout = "e-m:e-p270:32:32-p271:32:32-p272:64:64-i64:64-i128:128-f80:128-n8:16:32:64-S128"
target triple = "x86_64-unknown-linux-gnu"

; Function Attrs: mustprogress uwtable
define noundef zeroext i1 @_ZNK6icu_758numparse4impl13SeriesMatcher9smokeTestERKNS_13StringSegmentE(ptr noundef nonnull align 8 dereferenceable(8) %this, ptr noundef nonnull align 8 dereferenceable(17) %segment) unnamed_addr #0 align 2 {
entry:
  %retval = alloca i1, align 1
  %this.addr = alloca ptr, align 8
  %segment.addr = alloca ptr, align 8
  %__range1 = alloca ptr, align 8
  %__begin1 = alloca ptr, align 8
  %__end1 = alloca ptr, align 8
  %matcher = alloca ptr, align 8
  store ptr %this, ptr %this.addr, align 8
  store ptr %segment, ptr %segment.addr, align 8
  %this1 = load ptr, ptr %this.addr, align 8
  store ptr %this1, ptr %__range1, align 8
  %0 = load ptr, ptr %__range1, align 8
  %vtable = load ptr, ptr %0, align 8
  %vfn = getelementptr inbounds ptr, ptr %vtable, i64 7
  %1 = load ptr, ptr %vfn, align 8
  %call = call noundef ptr %1(ptr noundef nonnull align 8 dereferenceable(8) %0)
  store ptr %call, ptr %__begin1, align 8
  %2 = load ptr, ptr %__range1, align 8
  %vtable2 = load ptr, ptr %2, align 8
  %vfn3 = getelementptr inbounds ptr, ptr %vtable2, i64 8
  %3 = load ptr, ptr %vfn3, align 8
  %call4 = call noundef ptr %3(ptr noundef nonnull align 8 dereferenceable(8) %2)
  store ptr %call4, ptr %__end1, align 8
  br label %for.cond

for.cond:                                         ; preds = %for.inc, %entry
  %4 = load ptr, ptr %__begin1, align 8
  %5 = load ptr, ptr %__end1, align 8
  %cmp = icmp ne ptr %4, %5
  br i1 %cmp, label %for.body, label %for.end

for.body:                                         ; preds = %for.cond
  %6 = load ptr, ptr %__begin1, align 8
  store ptr %6, ptr %matcher, align 8
  %7 = load ptr, ptr %matcher, align 8
  %8 = load ptr, ptr %7, align 8
  %9 = load ptr, ptr %segment.addr, align 8
  %vtable5 = load ptr, ptr %8, align 8
  %vfn6 = getelementptr inbounds ptr, ptr %vtable5, i64 4
  %10 = load ptr, ptr %vfn6, align 8
  %call7 = call noundef zeroext i1 %10(ptr noundef nonnull align 8 dereferenceable(8) %8, ptr noundef nonnull align 8 dereferenceable(17) %9)
  store i1 %call7, ptr %retval, align 1
  br label %return

for.inc:                                          ; No predecessors!
  %11 = load ptr, ptr %__begin1, align 8
  %incdec.ptr = getelementptr inbounds ptr, ptr %11, i32 1
  store ptr %incdec.ptr, ptr %__begin1, align 8
  br label %for.cond

for.end:                                          ; preds = %for.cond
  store i1 false, ptr %retval, align 1
  br label %return

return:                                           ; preds = %for.end, %for.body
  %12 = load i1, ptr %retval, align 1
  ret i1 %12
}