; Function Attrs: mustprogress uwtable
define noundef zeroext i1 @_ZNK6icu_758numparse4impl13SeriesMatcher9smokeTestERKNS_13StringSegmentE(ptr noundef nonnull align 8 dereferenceable(8) %this, ptr noundef nonnull align 8 dereferenceable(17) %segment) unnamed_addr #0 align 2 {
entry:
  %vtable = load ptr, ptr %this, align 8
  %vfn = getelementptr inbounds i8, ptr %vtable, i64 56
  %0 = load ptr, ptr %vfn, align 8
  %call = tail call noundef ptr %0(ptr noundef nonnull align 8 dereferenceable(8) %this)
  %vtable2 = load ptr, ptr %this, align 8
  %vfn3 = getelementptr inbounds i8, ptr %vtable2, i64 64
  %1 = load ptr, ptr %vfn3, align 8
  %call4 = tail call noundef ptr %1(ptr noundef nonnull align 8 dereferenceable(8) %this)
  %cmp.not = icmp eq ptr %call, %call4
  br i1 %cmp.not, label %return, label %for.body

for.body:                                         ; preds = %entry
  %2 = load ptr, ptr %call, align 8
  %vtable5 = load ptr, ptr %2, align 8
  %vfn6 = getelementptr inbounds i8, ptr %vtable5, i64 32
  %3 = load ptr, ptr %vfn6, align 8
  %call7 = tail call noundef zeroext i1 %3(ptr noundef nonnull align 8 dereferenceable(8) %2, ptr noundef nonnull align 8 dereferenceable(17) %segment)
  br label %return

return:                                           ; preds = %entry, %for.body
  %retval.0 = phi i1 [ %call7, %for.body ], [ false, %entry ]
  ret i1 %retval.0
}